
Discarded input sections

 .text          0x0000000000000000        0x0 aes_comm.o
 .data          0x0000000000000000        0x0 aes_comm.o
 .bss           0x0000000000000000        0x0 aes_comm.o
 .text          0x0000000000000000        0x0 bsp/aes.o
 .data          0x0000000000000000        0x0 bsp/aes.o
 .bss           0x0000000000000000        0x0 bsp/aes.o
 .text.aes_getinv
                0x0000000000000000       0x1e bsp/aes.o
 .text.aes_getnk
                0x0000000000000000       0x1e bsp/aes.o
 .text.aes_setkeyw
                0x0000000000000000       0x20 bsp/aes.o
 .text.aes_setpctw
                0x0000000000000000       0x2e bsp/aes.o
 .text.aes_getpctw
                0x0000000000000000       0x26 bsp/aes.o
 .text          0x0000000000000000        0x0 bsp/irq.o
 .data          0x0000000000000000        0x0 bsp/irq.o
 .bss           0x0000000000000000        0x0 bsp/irq.o
 .text          0x0000000000000000        0x0 bsp/uart.o
 .data          0x0000000000000000        0x0 bsp/uart.o
 .bss           0x0000000000000000        0x0 bsp/uart.o
 .text          0x0000000000000000        0x0 bsp/irq_handler.o
 .data          0x0000000000000000        0x0 bsp/irq_handler.o
 .bss           0x0000000000000000        0x0 bsp/irq_handler.o
 .text          0x0000000000000000        0x0 bsp/startup.o
 .data          0x0000000000000000        0x0 bsp/startup.o
 .bss           0x0000000000000000        0x0 bsp/startup.o
 .text          0x0000000000000000        0x0 lib/printf.o
 .data          0x0000000000000000        0x0 lib/printf.o
 .bss           0x0000000000000000        0x0 lib/printf.o
 .text.outbyte  0x0000000000000000       0x1a lib/printf.o
 .text.printchar
                0x0000000000000000       0x1c lib/printf.o
 .text.prints   0x0000000000000000       0xb8 lib/printf.o
 .text.printi   0x0000000000000000       0xc2 lib/printf.o
 .rodata.print.str1.4
                0x0000000000000000        0x7 lib/printf.o
 .text.print    0x0000000000000000      0x174 lib/printf.o
 .text.printf   0x0000000000000000       0x28 lib/printf.o
 .text.sprintf  0x0000000000000000       0x26 lib/printf.o
 .text.snprintf
                0x0000000000000000       0x26 lib/printf.o
 .text.puts     0x0000000000000000       0x2e lib/printf.o
 .text.strlen   0x0000000000000000        0x8 lib/printf.o
 .comment       0x0000000000000000       0x34 lib/printf.o
 .riscv.attributes
                0x0000000000000000       0x26 lib/printf.o
 .text          0x0000000000000000        0x0 lib/sw_aes.o
 .data          0x0000000000000000        0x0 lib/sw_aes.o
 .bss           0x0000000000000000        0x0 lib/sw_aes.o

Memory Configuration

Name             Origin             Length             Attributes
RAM              0x0000000000000000 0x0000000000002000 xrw
*default*        0x0000000000000000 0xffffffffffffffff

Linker script and memory map

LOAD /opt/xpack-riscv-none-elf-gcc-12.2.0-1/bin/../lib/gcc/riscv-none-elf/12.2.0/rv32imc/ilp32/libgcc.a

.text.boot      0x0000000000000000        0x4
 *(.text.boot)
 .text.boot     0x0000000000000000        0x4 bsp/startup.o
                0x0000000000000000                boot
                0x0000000000000004                . = ALIGN (0x4)

.text.irq_handler
                0x0000000000000004       0xbc
 *(.text.irq_handler)
 .text.irq_handler
                0x0000000000000004       0xba bsp/irq_handler.o
                0x00000000000000c0                . = ALIGN (0x4)
 *fill*         0x00000000000000be        0x2 

.text           0x00000000000000c0     0x1354
 *(.text)
 *(.text*)
 .text.main     0x00000000000000c0      0x370 aes_comm.o
                0x00000000000000c0                main
 .text.test     0x0000000000000430      0x1e8 aes_comm.o
                0x0000000000000430                test
 .text.aes_getstate
                0x0000000000000618       0x1c bsp/aes.o
                0x0000000000000618                aes_getstate
 .text.aes_setinv
                0x0000000000000634       0x26 bsp/aes.o
                0x0000000000000634                aes_setinv
 .text.aes_setnk
                0x000000000000065a       0x26 bsp/aes.o
                0x000000000000065a                aes_setnk
 .text.aes_cipher
                0x0000000000000680       0x1c bsp/aes.o
                0x0000000000000680                aes_cipher
 .text.aes_expand
                0x000000000000069c       0x1c bsp/aes.o
                0x000000000000069c                aes_expand
 .text.aes_setkey
                0x00000000000006b8       0x66 bsp/aes.o
                0x00000000000006b8                aes_setkey
 .text.aes_setpcts
                0x000000000000071e       0x90 bsp/aes.o
                0x000000000000071e                aes_setpcts
 .text.aes_getpcts
                0x00000000000007ae       0x90 bsp/aes.o
                0x00000000000007ae                aes_getpcts
 .text.irq      0x000000000000083e       0x18 bsp/irq.o
                0x000000000000083e                irq
 .text.uart_init
                0x0000000000000856       0x2c bsp/uart.o
                0x0000000000000856                uart_init
 .text.uart_putchar
                0x0000000000000882       0x26 bsp/uart.o
                0x0000000000000882                uart_putchar
 .text.uart_getchar
                0x00000000000008a8       0x2c bsp/uart.o
                0x00000000000008a8                uart_getchar
 .text.xtime    0x00000000000008d4       0x3e lib/sw_aes.o
 .text.add_roundkey
                0x0000000000000912       0x58 lib/sw_aes.o
 .text.sub_bytes
                0x000000000000096a       0x78 lib/sw_aes.o
 .text.shift_rows
                0x00000000000009e2      0x1e4 lib/sw_aes.o
 .text.mix_col  0x0000000000000bc6      0x226 lib/sw_aes.o
 .text.mix_cols
                0x0000000000000dec       0x4c lib/sw_aes.o
 .text.rot_word
                0x0000000000000e38       0x26 lib/sw_aes.o
 .text.sub_word
                0x0000000000000e5e       0x5c lib/sw_aes.o
 .text.key_expansion
                0x0000000000000eba      0x136 lib/sw_aes.o
                0x0000000000000eba                key_expansion
 .text.cipher   0x0000000000000ff0       0xee lib/sw_aes.o
                0x0000000000000ff0                cipher
 .text.inv_cipher
                0x00000000000010de       0xee lib/sw_aes.o
                0x00000000000010de                inv_cipher
 *(.rodata)
 *(.rodata*)
 *fill*         0x00000000000011cc        0x0 
 .rodata.AES_NK
                0x00000000000011cc        0xc aes_comm.o
                0x00000000000011cc                AES_NK
 .rodata.key    0x00000000000011d8       0x20 aes_comm.o
                0x00000000000011d8                key
 .rodata.ptext  0x00000000000011f8       0x10 aes_comm.o
                0x00000000000011f8                ptext
 .rodata.rcon   0x0000000000001208        0xa lib/sw_aes.o
                0x0000000000001208                rcon
 *fill*         0x0000000000001212        0x2 
 .rodata.sbox   0x0000000000001214      0x200 lib/sw_aes.o
                0x0000000000001214                sbox
 *(.srodata)
 *(.srodata*)
                0x0000000000001414                . = ALIGN (0x4)

.data           0x0000000000001414        0x8
 *(.data)
 *(.data)
 *(.sdata)
 *(.sdata*)
 .sdata.uart    0x0000000000001414        0x4 aes_comm.o
                0x0000000000001414                uart
 .sdata.aes     0x0000000000001418        0x4 aes_comm.o
                0x0000000000001418                aes
                0x000000000000141c                . = ALIGN (0x4)

.bss            0x000000000000141c      0x104
 *(.bss)
 *(.bss*)
 .bss.buf       0x000000000000141c       0x80 aes_comm.o
                0x000000000000141c                buf
 .bss.result    0x000000000000149c       0x80 aes_comm.o
                0x000000000000149c                result
 *(.sbss)
 *(.sbss*)
 .sbss.instr    0x000000000000151c        0x1 aes_comm.o
                0x000000000000151c                instr
 .sbss.bytes_n  0x000000000000151d        0x1 aes_comm.o
                0x000000000000151d                bytes_n
 .sbss.state    0x000000000000151e        0x1 aes_comm.o
                0x000000000000151e                state
 .sbss.checksum
                0x000000000000151f        0x1 aes_comm.o
                0x000000000000151f                checksum
 *(COMMON)
                0x0000000000001520                . = ALIGN (0x4)
LOAD aes_comm.o
LOAD bsp/aes.o
LOAD bsp/irq.o
LOAD bsp/uart.o
LOAD bsp/irq_handler.o
LOAD bsp/startup.o
LOAD lib/printf.o
LOAD lib/sw_aes.o
OUTPUT(fw.elf elf32-littleriscv)

.comment        0x0000000000000000       0x33
 .comment       0x0000000000000000       0x33 aes_comm.o
                                         0x34 (size before relaxing)
 .comment       0x0000000000000033       0x34 bsp/aes.o
 .comment       0x0000000000000033       0x34 bsp/irq.o
 .comment       0x0000000000000033       0x34 bsp/uart.o
 .comment       0x0000000000000033       0x34 lib/sw_aes.o

.riscv.attributes
                0x0000000000000000       0x26
 .riscv.attributes
                0x0000000000000000       0x26 aes_comm.o
 .riscv.attributes
                0x0000000000000026       0x26 bsp/aes.o
 .riscv.attributes
                0x000000000000004c       0x26 bsp/irq.o
 .riscv.attributes
                0x0000000000000072       0x26 bsp/uart.o
 .riscv.attributes
                0x0000000000000098       0x24 bsp/irq_handler.o
 .riscv.attributes
                0x00000000000000bc       0x24 bsp/startup.o
 .riscv.attributes
                0x00000000000000e0       0x26 lib/sw_aes.o
